target datalayout = "e-m:e-p270:32:32-p271:32:32-p272:64:64-i64:64-i128:128-f80:128-n8:16:32:64-S128"
target triple = "x86_64-pc-linux-gnu"

%struct.ldap_conv_info_t = type { i32, ptr, i32, ptr, ptr, i8, i32, i8, i32 }
%struct.nstime_t = type { i64, i32 }
%struct._packet_info = type { ptr, ptr, i32, i32, %struct.nstime_t, %struct.nstime_t, %struct.nstime_t, i8, ptr, ptr, ptr, ptr, %struct._address, %struct._address, %struct._address, %struct._address, %struct._address, %struct._address, i32, ptr, i8, [3 x i8], %struct.anon.1, i32, i32, i32, i32, ptr, i8, ptr, ptr, i16, i16, i32, i32, i16, i32, i32, ptr, ptr, ptr, i8, i8, i16, i16, i16, i32, i16, i16, ptr, ptr, ptr, ptr, ptr, i32, i32 }
%struct._address = type { i32, i32, ptr, ptr }
%struct.anon.1 = type { i8, [3 x i8] }
%struct._asn1_ctx_t = type { i32, i32, i8, ptr, ptr, ptr, ptr, ptr, %struct.anon.2, %struct.anon.5, %struct.anon.6, ptr }
%struct.anon.2 = type { i32, i8, i8, i8, ptr, ptr, i32, i32, ptr, ptr, ptr, %union.anon }
%union.anon = type { %struct.anon.3 }
%struct.anon.3 = type { ptr }
%struct.anon.5 = type { ptr, ptr, ptr }
%struct.anon.6 = type { i32, i8, ptr, i32, i32, ptr, ptr, ptr, %union.anon.7 }
%union.anon.7 = type { %struct.anon.8 }
%struct.anon.8 = type { ptr }

@hf_ldap_requestName = internal global i32 0, align 4
@hf_ldap_responseName = internal global i32 0, align 4
@.str.646 = private unnamed_addr constant [23 x i8] c"1.3.6.1.4.1.1466.20037\00", align 1
@ldm_tree = internal global ptr null, align 8
@object_identifier_id = internal global ptr null, align 8
@do_protocolop = internal global i8 0, align 1
@MessageID = internal global i32 -1, align 4
@ProtocolOp = internal global i32 -1, align 4
@.str.870 = private unnamed_addr constant [6 x i8] c" (%s)\00", align 1
@.str.874 = private unnamed_addr constant [13 x i8] c"Unknown (%u)\00", align 1
@.str.875 = private unnamed_addr constant [8 x i8] c"%s(%u) \00", align 1
@.str.876 = private unnamed_addr constant [8 x i8] c" %s(%d)\00", align 1
@.str.879 = private unnamed_addr constant [4 x i8] c"%s \00", align 1

; Function Attrs: null_pointer_is_valid sspstrong uwtable
define internal void @ldap_do_protocolop(ptr noundef %0) #0 {
  %2 = alloca ptr, align 8
  %3 = alloca ptr, align 8
  store ptr %0, ptr %2, align 8
  call void @llvm.lifetime.start.p0(i64 8, ptr %3) #16
  %4 = load i8, ptr @do_protocolop, align 1, !range !6, !noundef !7
  %5 = trunc i8 %4 to i1
  br i1 %5, label %6, label %21

6:                                                ; preds = %1
  %7 = load i32, ptr @ProtocolOp, align 4
  %8 = call ptr @val_to_str(i32 noundef %7, ptr noundef @ldap_ProtocolOp_choice_vals, ptr noundef @.str.874)
  store ptr %8, ptr %3, align 8
  %9 = load ptr, ptr %2, align 8
  %10 = getelementptr inbounds nuw %struct._packet_info, ptr %9, i32 0, i32 1
  %11 = load ptr, ptr %10, align 8
  %12 = load ptr, ptr %3, align 8
  %13 = load i32, ptr @MessageID, align 4
  call void (ptr, i32, ptr, ...) @col_append_fstr(ptr noundef %11, i32 noundef 25, ptr noundef @.str.875, ptr noundef %12, i32 noundef %13)
  %14 = load ptr, ptr @ldm_tree, align 8
  %15 = icmp ne ptr %14, null
  br i1 %15, label %16, label %20

16:                                               ; preds = %6
  %17 = load ptr, ptr @ldm_tree, align 8
  %18 = load ptr, ptr %3, align 8
  %19 = load i32, ptr @MessageID, align 4
  call void (ptr, ptr, ...) @proto_item_append_text(ptr noundef %17, ptr noundef @.str.876, ptr noundef %18, i32 noundef %19)
  br label %20

20:                                               ; preds = %16, %6
  store i8 0, ptr @do_protocolop, align 1
  br label %21

21:                                               ; preds = %20, %1
  call void @llvm.lifetime.end.p0(i64 8, ptr %3) #16
  ret void
}

; Function Attrs: null_pointer_is_valid sspstrong uwtable
define internal i32 @dissect_ldap_LDAPOID(i1 noundef zeroext %0, ptr noundef %1, i32 noundef %2, ptr noundef %3, ptr noundef %4, i32 noundef %5) #0 {
  %7 = alloca i32, align 4
  %8 = alloca i8, align 1
  %9 = alloca ptr, align 8
  %10 = alloca i32, align 4
  %11 = alloca ptr, align 8
  %12 = alloca ptr, align 8
  %13 = alloca i32, align 4
  %14 = alloca ptr, align 8
  %15 = alloca ptr, align 8
  %16 = alloca ptr, align 8
  %17 = alloca i32, align 4
  %18 = zext i1 %0 to i8
  store i8 %18, ptr %8, align 1
  store ptr %1, ptr %9, align 8
  store i32 %2, ptr %10, align 4
  store ptr %3, ptr %11, align 8
  store ptr %4, ptr %12, align 8
  store i32 %5, ptr %13, align 4
  call void @llvm.lifetime.start.p0(i64 8, ptr %14) #16
  call void @llvm.lifetime.start.p0(i64 8, ptr %15) #16
  call void @llvm.lifetime.start.p0(i64 8, ptr %16) #16
  %19 = load ptr, ptr %11, align 8
  %20 = getelementptr inbounds nuw %struct._asn1_ctx_t, ptr %19, i32 0, i32 7
  %21 = load ptr, ptr %20, align 8
  store ptr %21, ptr %16, align 8
  %22 = load i8, ptr %8, align 1, !range !6, !noundef !7
  %23 = trunc i8 %22 to i1
  %24 = load ptr, ptr %11, align 8
  %25 = load ptr, ptr %12, align 8
  %26 = load ptr, ptr %9, align 8
  %27 = load i32, ptr %10, align 4
  %28 = load i32, ptr %13, align 4
  %29 = call i32 @dissect_ber_octet_string(i1 noundef zeroext %23, ptr noundef %24, ptr noundef %25, ptr noundef %26, i32 noundef %27, i32 noundef %28, ptr noundef %14)
  store i32 %29, ptr %10, align 4
  store ptr null, ptr @object_identifier_id, align 8
  %30 = load ptr, ptr %14, align 8
  %31 = icmp ne ptr %30, null
  br i1 %31, label %34, label %32

32:                                               ; preds = %6
  %33 = load i32, ptr %10, align 4
  store i32 %33, ptr %7, align 4
  store i32 1, ptr %17, align 4
  br label %92

34:                                               ; preds = %6
  %35 = load ptr, ptr %11, align 8
  %36 = getelementptr inbounds nuw %struct._asn1_ctx_t, ptr %35, i32 0, i32 3
  %37 = load ptr, ptr %36, align 8
  %38 = getelementptr inbounds nuw %struct._packet_info, ptr %37, i32 0, i32 51
  %39 = load ptr, ptr %38, align 8
  %40 = load ptr, ptr %14, align 8
  %41 = load ptr, ptr %14, align 8
  %42 = call i32 @tvb_reported_length_remaining(ptr noundef %41, i32 noundef 0)
  %43 = call ptr @tvb_get_string_enc(ptr noundef %39, ptr noundef %40, i32 noundef 0, i32 noundef %42, i32 noundef 2)
  store ptr %43, ptr @object_identifier_id, align 8
  %44 = load ptr, ptr %11, align 8
  %45 = getelementptr inbounds nuw %struct._asn1_ctx_t, ptr %44, i32 0, i32 3
  %46 = load ptr, ptr %45, align 8
  %47 = getelementptr inbounds nuw %struct._packet_info, ptr %46, i32 0, i32 51
  %48 = load ptr, ptr %47, align 8
  %49 = load ptr, ptr @object_identifier_id, align 8
  %50 = call ptr @oid_resolved_from_string(ptr noundef %48, ptr noundef %49)
  store ptr %50, ptr %15, align 8
  %51 = load ptr, ptr %15, align 8
  %52 = icmp ne ptr %51, null
  br i1 %52, label %53, label %76

53:                                               ; preds = %34
  %54 = load ptr, ptr %11, align 8
  %55 = getelementptr inbounds nuw %struct._asn1_ctx_t, ptr %54, i32 0, i32 4
  %56 = load ptr, ptr %55, align 8
  %57 = load ptr, ptr %15, align 8
  call void (ptr, ptr, ...) @proto_item_append_text(ptr noundef %56, ptr noundef @.str.870, ptr noundef %57)
  %58 = load i32, ptr %13, align 4
  %59 = load i32, ptr @hf_ldap_requestName, align 4
  %60 = icmp eq i32 %58, %59
  br i1 %60, label %65, label %61

61:                                               ; preds = %53
  %62 = load i32, ptr %13, align 4
  %63 = load i32, ptr @hf_ldap_responseName, align 4
  %64 = icmp eq i32 %62, %63
  br i1 %64, label %65, label %75

65:                                               ; preds = %61, %53
  %66 = load ptr, ptr %11, align 8
  %67 = getelementptr inbounds nuw %struct._asn1_ctx_t, ptr %66, i32 0, i32 3
  %68 = load ptr, ptr %67, align 8
  call void @ldap_do_protocolop(ptr noundef %68)
  %69 = load ptr, ptr %11, align 8
  %70 = getelementptr inbounds nuw %struct._asn1_ctx_t, ptr %69, i32 0, i32 3
  %71 = load ptr, ptr %70, align 8
  %72 = getelementptr inbounds nuw %struct._packet_info, ptr %71, i32 0, i32 1
  %73 = load ptr, ptr %72, align 8
  %74 = load ptr, ptr %15, align 8
  call void (ptr, i32, ptr, ...) @col_append_fstr(ptr noundef %73, i32 noundef 25, ptr noundef @.str.879, ptr noundef %74)
  br label %75

75:                                               ; preds = %65, %61
  br label %76

76:                                               ; preds = %75, %34
  %77 = load ptr, ptr %16, align 8
  %78 = icmp ne ptr %77, null
  br i1 %78, label %79, label %90

79:                                               ; preds = %76
  %80 = load i32, ptr %13, align 4
  %81 = load i32, ptr @hf_ldap_requestName, align 4
  %82 = icmp eq i32 %80, %81
  br i1 %82, label %83, label %90

83:                                               ; preds = %79
  %84 = load ptr, ptr @object_identifier_id, align 8
  %85 = call i32 @strcmp(ptr noundef %84, ptr noundef @.str.646) #17
  %86 = icmp ne i32 %85, 0
  br i1 %86, label %90, label %87

87:                                               ; preds = %83
  %88 = load ptr, ptr %16, align 8
  %89 = getelementptr inbounds nuw %struct.ldap_conv_info_t, ptr %88, i32 0, i32 7
  store i8 1, ptr %89, align 8
  br label %90

90:                                               ; preds = %87, %83, %79, %76
  %91 = load i32, ptr %10, align 4
  store i32 %91, ptr %7, align 4
  store i32 1, ptr %17, align 4
  br label %92

92:                                               ; preds = %90, %32
  call void @llvm.lifetime.end.p0(i64 8, ptr %16) #16
  call void @llvm.lifetime.end.p0(i64 8, ptr %15) #16
  call void @llvm.lifetime.end.p0(i64 8, ptr %14) #16
  %93 = load i32, ptr %7, align 4
  ret i32 %93
}