; Function Attrs: null_pointer_is_valid sspstrong uwtable
define internal i32 @dissect_ldap_LDAPOID(i1 noundef zeroext %0, ptr noundef %1, i32 noundef %2, ptr noundef %3, ptr noundef %4, i32 noundef %5) #0 {
  %7 = alloca ptr, align 8
  call void @llvm.lifetime.start.p0(i64 8, ptr nonnull %7) #14
  %8 = getelementptr inbounds nuw i8, ptr %3, i64 48
  %9 = load ptr, ptr %8, align 8
  %10 = call i32 @dissect_ber_octet_string(i1 noundef zeroext %0, ptr noundef %3, ptr noundef %4, ptr noundef %1, i32 noundef %2, i32 noundef %5, ptr noundef nonnull %7)
  store ptr null, ptr @object_identifier_id, align 8
  %11 = load ptr, ptr %7, align 8
  %.not = icmp eq ptr %11, null
  br i1 %.not, label %53, label %12

12:                                               ; preds = %6
  %13 = getelementptr inbounds nuw i8, ptr %3, i64 16
  %14 = load ptr, ptr %13, align 8
  %15 = getelementptr inbounds nuw i8, ptr %14, i64 408
  %16 = load ptr, ptr %15, align 8
  %17 = call i32 @tvb_reported_length_remaining(ptr noundef nonnull %11, i32 noundef 0)
  %18 = call ptr @tvb_get_string_enc(ptr noundef %16, ptr noundef nonnull %11, i32 noundef 0, i32 noundef %17, i32 noundef 2)
  store ptr %18, ptr @object_identifier_id, align 8
  %19 = load ptr, ptr %13, align 8
  %20 = getelementptr inbounds nuw i8, ptr %19, i64 408
  %21 = load ptr, ptr %20, align 8
  %22 = call ptr @oid_resolved_from_string(ptr noundef %21, ptr noundef %18)
  %.not25 = icmp eq ptr %22, null
  br i1 %.not25, label %45, label %23

23:                                               ; preds = %12
  %24 = getelementptr inbounds nuw i8, ptr %3, i64 24
  %25 = load ptr, ptr %24, align 8
  call void (ptr, ptr, ...) @proto_item_append_text(ptr noundef %25, ptr noundef nonnull @.str.870, ptr noundef nonnull %22)
  %26 = load i32, ptr @hf_ldap_requestName, align 4
  %27 = icmp eq i32 %5, %26
  %28 = load i32, ptr @hf_ldap_responseName, align 4
  %29 = icmp eq i32 %5, %28
  %or.cond = select i1 %27, i1 true, i1 %29
  br i1 %or.cond, label %30, label %45

30:                                               ; preds = %23
  %.b3.i = load i1, ptr @do_protocolop, align 1
  br i1 %.b3.i, label %31, label %ldap_do_protocolop.exit

31:                                               ; preds = %30
  %32 = load ptr, ptr %13, align 8
  %33 = load i32, ptr @ProtocolOp, align 4
  %34 = call ptr @val_to_str(i32 noundef %33, ptr noundef nonnull @ldap_ProtocolOp_choice_vals, ptr noundef nonnull @.str.874)
  %35 = getelementptr inbounds nuw i8, ptr %32, i64 8
  %36 = load ptr, ptr %35, align 8
  %37 = load i32, ptr @MessageID, align 4
  call void (ptr, i32, ptr, ...) @col_append_fstr(ptr noundef %36, i32 noundef 25, ptr noundef nonnull @.str.875, ptr noundef %34, i32 noundef %37)
  %38 = load ptr, ptr @ldm_tree, align 8
  %.not.i = icmp eq ptr %38, null
  br i1 %.not.i, label %41, label %39

39:                                               ; preds = %31
  %40 = load i32, ptr @MessageID, align 4
  call void (ptr, ptr, ...) @proto_item_append_text(ptr noundef nonnull %38, ptr noundef nonnull @.str.876, ptr noundef %34, i32 noundef %40)
  br label %41

41:                                               ; preds = %39, %31
  store i1 false, ptr @do_protocolop, align 1
  br label %ldap_do_protocolop.exit

ldap_do_protocolop.exit:                          ; preds = %30, %41
  %42 = load ptr, ptr %13, align 8
  %43 = getelementptr inbounds nuw i8, ptr %42, i64 8
  %44 = load ptr, ptr %43, align 8
  call void (ptr, i32, ptr, ...) @col_append_fstr(ptr noundef %44, i32 noundef 25, ptr noundef nonnull @.str.879, ptr noundef nonnull %22)
  br label %45

45:                                               ; preds = %23, %ldap_do_protocolop.exit, %12
  %.not26 = icmp ne ptr %9, null
  %46 = load i32, ptr @hf_ldap_requestName, align 4
  %47 = icmp eq i32 %5, %46
  %or.cond30 = select i1 %.not26, i1 %47, i1 false
  br i1 %or.cond30, label %48, label %53

48:                                               ; preds = %45
  %49 = load ptr, ptr @object_identifier_id, align 8
  %50 = call i32 @strcmp(ptr noundef %49, ptr noundef nonnull dereferenceable(23) @.str.646) #15
  %.not27 = icmp eq i32 %50, 0
  br i1 %.not27, label %51, label %53

51:                                               ; preds = %48
  %52 = getelementptr inbounds nuw i8, ptr %9, i64 48
  store i8 1, ptr %52, align 8
  br label %53

53:                                               ; preds = %45, %48, %51, %6
  call void @llvm.lifetime.end.p0(i64 8, ptr nonnull %7) #14
  ret i32 %10
}